; ModuleID = 'source-C-CXX/3/671.c'
source_filename = "source-C-CXX/3/671.c"
target datalayout = "e-m:e-p270:32:32-p271:32:32-p272:64:64-i64:64-f80:128-n8:16:32:64-S128"
target triple = "x86_64-pc-linux-gnu"

@.str = private unnamed_addr constant [6 x i8] c"%d %d\00", align 1
@.str.1 = private unnamed_addr constant [3 x i8] c"%d\00", align 1
@.str.2 = private unnamed_addr constant [4 x i8] c"%d\0A\00", align 1

; Function Attrs: nofree nounwind sspstrong uwtable
define dso_local i32 @main() local_unnamed_addr #0 {
  %1 = alloca i32, align 4
  %2 = alloca i32, align 4
  %3 = alloca [100 x [100 x i32]], align 16
  %4 = bitcast i32* %1 to i8*
  call void @llvm.lifetime.start.p0i8(i64 4, i8* nonnull %4) #3
  %5 = bitcast i32* %2 to i8*
  call void @llvm.lifetime.start.p0i8(i64 4, i8* nonnull %5) #3
  %6 = bitcast [100 x [100 x i32]]* %3 to i8*
  call void @llvm.lifetime.start.p0i8(i64 40000, i8* nonnull %6) #3
  %7 = call i32 (i8*, ...) @__isoc99_scanf(i8* getelementptr inbounds ([6 x i8], [6 x i8]* @.str, i64 0, i64 0), i32* nonnull %1, i32* nonnull %2)
  %8 = load i32, i32* %1, align 4, !tbaa !5
  %9 = icmp sgt i32 %8, 0
  %10 = load i32, i32* %2, align 4, !tbaa !5
  br i1 %9, label %11, label %18

11:                                               ; preds = %0
  %12 = icmp sgt i32 %10, 0
  br i1 %12, label %13, label %41

13:                                               ; preds = %11, %32
  %14 = phi i32 [ %33, %32 ], [ %8, %11 ]
  %15 = phi i32 [ %34, %32 ], [ %10, %11 ]
  %16 = phi i64 [ %35, %32 ], [ 0, %11 ]
  %17 = icmp sgt i32 %15, 0
  br i1 %17, label %22, label %32

18:                                               ; preds = %32, %0
  %19 = phi i32 [ %8, %0 ], [ %33, %32 ]
  %20 = phi i32 [ %10, %0 ], [ %34, %32 ]
  %21 = icmp sgt i32 %20, 0
  br i1 %21, label %38, label %41

22:                                               ; preds = %13, %22
  %23 = phi i64 [ %26, %22 ], [ 0, %13 ]
  %24 = getelementptr inbounds [100 x [100 x i32]], [100 x [100 x i32]]* %3, i64 0, i64 %16, i64 %23
  %25 = call i32 (i8*, ...) @__isoc99_scanf(i8* getelementptr inbounds ([3 x i8], [3 x i8]* @.str.1, i64 0, i64 0), i32* nonnull %24)
  %26 = add nuw nsw i64 %23, 1
  %27 = load i32, i32* %2, align 4, !tbaa !5
  %28 = sext i32 %27 to i64
  %29 = icmp slt i64 %26, %28
  br i1 %29, label %22, label %30, !llvm.loop !9

30:                                               ; preds = %22
  %31 = load i32, i32* %1, align 4, !tbaa !5
  br label %32

32:                                               ; preds = %30, %13
  %33 = phi i32 [ %31, %30 ], [ %14, %13 ]
  %34 = phi i32 [ %27, %30 ], [ %15, %13 ]
  %35 = add nuw nsw i64 %16, 1
  %36 = sext i32 %33 to i64
  %37 = icmp slt i64 %35, %36
  br i1 %37, label %13, label %18, !llvm.loop !11

38:                                               ; preds = %18, %59
  %39 = phi i64 [ %63, %59 ], [ 0, %18 ]
  %40 = phi i32 [ %60, %59 ], [ 0, %18 ]
  br label %45

41:                                               ; preds = %59, %11, %18
  %42 = phi i32 [ %20, %18 ], [ %10, %11 ], [ %61, %59 ]
  %43 = phi i32 [ %19, %18 ], [ %8, %11 ], [ %54, %59 ]
  %44 = icmp sgt i32 %43, 1
  br i1 %44, label %64, label %89

45:                                               ; preds = %38, %45
  %46 = phi i64 [ %39, %38 ], [ %52, %45 ]
  %47 = phi i64 [ 0, %38 ], [ %51, %45 ]
  %48 = getelementptr inbounds [100 x [100 x i32]], [100 x [100 x i32]]* %3, i64 0, i64 %47, i64 %46
  %49 = load i32, i32* %48, align 4, !tbaa !5
  %50 = call i32 (i8*, ...) @printf(i8* nonnull dereferenceable(1) getelementptr inbounds ([4 x i8], [4 x i8]* @.str.2, i64 0, i64 0), i32 %49)
  %51 = add nuw nsw i64 %47, 1
  %52 = add nsw i64 %46, -1
  %53 = icmp sgt i64 %46, 0
  %54 = load i32, i32* %1, align 4
  %55 = add nsw i32 %54, -1
  %56 = sext i32 %55 to i64
  %57 = icmp slt i64 %47, %56
  %58 = select i1 %53, i1 %57, i1 false
  br i1 %58, label %45, label %59, !llvm.loop !13

59:                                               ; preds = %45
  %60 = add nuw nsw i32 %40, 1
  %61 = load i32, i32* %2, align 4, !tbaa !5
  %62 = icmp slt i32 %60, %61
  %63 = add nuw nsw i64 %39, 1
  br i1 %62, label %38, label %41, !llvm.loop !14

64:                                               ; preds = %41, %86
  %65 = phi i32 [ %88, %86 ], [ %42, %41 ]
  %66 = phi i64 [ %87, %86 ], [ 1, %41 ]
  %67 = phi i32 [ %84, %86 ], [ 1, %41 ]
  %68 = sext i32 %65 to i64
  br label %69

69:                                               ; preds = %69, %64
  %70 = phi i64 [ %72, %69 ], [ %68, %64 ]
  %71 = phi i64 [ %76, %69 ], [ %66, %64 ]
  %72 = add nsw i64 %70, -1
  %73 = getelementptr inbounds [100 x [100 x i32]], [100 x [100 x i32]]* %3, i64 0, i64 %71, i64 %72
  %74 = load i32, i32* %73, align 4, !tbaa !5
  %75 = call i32 (i8*, ...) @printf(i8* nonnull dereferenceable(1) getelementptr inbounds ([4 x i8], [4 x i8]* @.str.2, i64 0, i64 0), i32 %74)
  %76 = add nuw nsw i64 %71, 1
  %77 = icmp sgt i64 %70, 1
  %78 = load i32, i32* %1, align 4
  %79 = add nsw i32 %78, -1
  %80 = sext i32 %79 to i64
  %81 = icmp slt i64 %71, %80
  %82 = select i1 %77, i1 %81, i1 false
  br i1 %82, label %69, label %83, !llvm.loop !15

83:                                               ; preds = %69
  %84 = add nuw nsw i32 %67, 1
  %85 = icmp slt i32 %84, %78
  br i1 %85, label %86, label %89, !llvm.loop !16

86:                                               ; preds = %83
  %87 = add nuw nsw i64 %66, 1
  %88 = load i32, i32* %2, align 4, !tbaa !5
  br label %64

89:                                               ; preds = %83, %41
  call void @llvm.lifetime.end.p0i8(i64 40000, i8* nonnull %6) #3
  call void @llvm.lifetime.end.p0i8(i64 4, i8* nonnull %5) #3
  call void @llvm.lifetime.end.p0i8(i64 4, i8* nonnull %4) #3
  ret i32 0
}

; Function Attrs: argmemonly mustprogress nofree nosync nounwind willreturn
declare void @llvm.lifetime.start.p0i8(i64 immarg, i8* nocapture) #1

; Function Attrs: nofree nounwind
declare noundef i32 @__isoc99_scanf(i8* nocapture noundef readonly, ...) local_unnamed_addr #2

; Function Attrs: nofree nounwind
declare noundef i32 @printf(i8* nocapture noundef readonly, ...) local_unnamed_addr #2

; Function Attrs: argmemonly mustprogress nofree nosync nounwind willreturn
declare void @llvm.lifetime.end.p0i8(i64 immarg, i8* nocapture) #1


!llvm.module.flags = !{!0, !1, !2, !3}
!llvm.ident = !{!4}

!0 = !{i32 1, !"wchar_size", i32 4}
!1 = !{i32 7, !"PIC Level", i32 2}
!2 = !{i32 7, !"PIE Level", i32 2}
!3 = !{i32 7, !"uwtable", i32 1}
!4 = !{!"clang version 13.0.0"}
!5 = !{!6, !6, i64 0}
!6 = !{!"int", !7, i64 0}
!7 = !{!"omnipotent char", !8, i64 0}
!8 = !{!"Simple C/C++ TBAA"}
!9 = distinct !{!9, !10}
!10 = !{!"llvm.loop.mustprogress"}
!11 = distinct !{!11, !10, !12}
!12 = !{!"llvm.loop.unswitch.partial.disable"}
!13 = distinct !{!13, !10}
!14 = distinct !{!14, !10}
!15 = distinct !{!15, !10}
!16 = distinct !{!16, !10}
